#include <math.h>
#include <stdio.h>
#include <stdlib.h>
#include <string.h>

int main(){
    int i,j,k,a[500]={0},b[500]={0},n,l,max;
    char s[500]={'\0'};
    char c[500][5]={'\0'};
    scanf("%d\n",&n);
    gets(s);
    l=strlen(s);
    for(i=0;i<=l-n;i++){
                       for(j=0;j<n;j++){
                                        c[i][j]=s[i+j];}}
    for(i=0;i<=l-n;i++){
                       for(j=i;j<=l-n;j++){
                                          if(strcmp(c[i],c[j])==0) a[i]++;
                                          }
                                          }
    max=a[0];
    for(i=0;i<l-n;i++){
                       if(a[i]>=max) max=a[i];}
    if(max==1) printf("NO");
    else{printf("%d\n",max);
          for(i=0;i<l-n;i++){
                       if(a[i]==max){ puts(c[i]);}}
                       }

}